; Function Attrs: mustprogress nounwind uwtable
define internal noundef zeroext i1 @"_ZN4llvm12function_refIFbPKNS_3UseEEE11callback_fnIZNS_16InstCombinerImpl20tryToSinkInstructionEPNS_11InstructionEPNS_10BasicBlockEE3$_0EEblS3_"(i64 noundef %0, ptr noundef readonly captures(none) %1) #0 align 2 {
  %3 = alloca ptr, align 8
  %4 = inttoptr i64 %0 to ptr
  %5 = getelementptr i8, ptr %4, i64 8
  %.val1 = load ptr, ptr %5, align 8
  %6 = getelementptr i8, ptr %1, i64 24
  %.val2 = load ptr, ptr %6, align 8
  %7 = load i8, ptr %.val2, align 8
  %8 = icmp ult i8 %7, 29
  br i1 %8, label %"_ZZN4llvm16InstCombinerImpl20tryToSinkInstructionEPNS_11InstructionEPNS_10BasicBlockEENK3$_0clEPKNS_3UseE.exit", label %9

9:                                                ; preds = %2
  %.val = load ptr, ptr %4, align 8
  %10 = getelementptr inbounds nuw i8, ptr %.val2, i64 40
  %11 = load ptr, ptr %10, align 8
  %12 = load ptr, ptr %.val, align 8
  %.not7.i = icmp eq ptr %11, %12
  br i1 %.not7.i, label %"_ZZN4llvm16InstCombinerImpl20tryToSinkInstructionEPNS_11InstructionEPNS_10BasicBlockEENK3$_0clEPKNS_3UseE.exit", label %13

13:                                               ; preds = %9
  %14 = getelementptr inbounds nuw i8, ptr %.val1, i64 32
  %15 = load ptr, ptr %14, align 8
  call void @llvm.lifetime.start.p0(i64 8, ptr nonnull %3)
  store ptr %.val2, ptr %3, align 8
  %16 = getelementptr inbounds nuw i8, ptr %15, i64 2088
  %17 = call noundef zeroext i1 @_ZN4llvm9SetVectorIPNS_11InstructionENS_11SmallVectorIS2_Lj16EEENS_8DenseSetIS2_NS_12DenseMapInfoIS2_vEEEELj16EE6insertERKS2_(ptr noundef nonnull align 8 dereferenceable(168) %16, ptr noundef nonnull align 8 dereferenceable(8) %3)
  call void @llvm.lifetime.end.p0(i64 8, ptr nonnull %3)
  br label %"_ZZN4llvm16InstCombinerImpl20tryToSinkInstructionEPNS_11InstructionEPNS_10BasicBlockEENK3$_0clEPKNS_3UseE.exit"

"_ZZN4llvm16InstCombinerImpl20tryToSinkInstructionEPNS_11InstructionEPNS_10BasicBlockEENK3$_0clEPKNS_3UseE.exit": ; preds = %2, %9, %13
  %.0.i = phi i1 [ true, %13 ], [ false, %9 ], [ false, %2 ]
  ret i1 %.0.i
}